target datalayout = "e-m:e-p270:32:32-p271:32:32-p272:64:64-i64:64-i128:128-f80:128-n8:16:32:64-S128"
target triple = "x86_64-pc-linux-gnu"

%"class.net::QuicTime" = type { i64 }
%"class.net::QuicFramer" = type { ptr, %"class.std::__cxx11::basic_string", ptr, ptr, i32, %"class.std::unordered_set", %"class.std::unordered_map", i64, %"class.std::unordered_map", i64, i8, i64, i32, i32, %"class.std::vector", %"class.std::unique_ptr", %"class.std::unique_ptr", i8, i8, i8, [3 x %"class.std::unique_ptr.23"], i32, i8, %"class.net::QuicTime", %"class.net::QuicTime::Delta", %"struct.std::array" }
%"class.std::__cxx11::basic_string" = type { %"struct.std::__cxx11::basic_string<char>::_Alloc_hider", i64, %union.anon }
%"struct.std::__cxx11::basic_string<char>::_Alloc_hider" = type { ptr }
%union.anon = type { i64, [8 x i8] }
%"class.std::unordered_set" = type { %"class.std::_Hashtable" }
%"class.std::_Hashtable" = type { ptr, i64, %"struct.std::__detail::_Hash_node_base", i64, %"struct.std::__detail::_Prime_rehash_policy", ptr }
%"struct.std::__detail::_Hash_node_base" = type { ptr }
%"struct.std::__detail::_Prime_rehash_policy" = type { float, i64 }
%"class.std::unordered_map" = type { %"class.std::_Hashtable.5" }
%"class.std::_Hashtable.5" = type { ptr, i64, %"struct.std::__detail::_Hash_node_base", i64, %"struct.std::__detail::_Prime_rehash_policy", ptr }
%"class.std::vector" = type { %"struct.std::_Vector_base" }
%"struct.std::_Vector_base" = type { %"struct.std::_Vector_base<net::QuicVersion, std::allocator<net::QuicVersion>>::_Vector_impl" }
%"struct.std::_Vector_base<net::QuicVersion, std::allocator<net::QuicVersion>>::_Vector_impl" = type { %"struct.std::_Vector_base<net::QuicVersion, std::allocator<net::QuicVersion>>::_Vector_impl_data" }
%"struct.std::_Vector_base<net::QuicVersion, std::allocator<net::QuicVersion>>::_Vector_impl_data" = type { ptr, ptr, ptr }
%"class.std::unique_ptr" = type { %"struct.std::__uniq_ptr_data" }
%"struct.std::__uniq_ptr_data" = type { %"class.std::__uniq_ptr_impl" }
%"class.std::__uniq_ptr_impl" = type { %"class.std::tuple" }
%"class.std::tuple" = type { %"struct.std::_Tuple_impl" }
%"struct.std::_Tuple_impl" = type { %"struct.std::_Head_base.22" }
%"struct.std::_Head_base.22" = type { ptr }
%"class.std::unique_ptr.23" = type { %"struct.std::__uniq_ptr_data.24" }
%"struct.std::__uniq_ptr_data.24" = type { %"class.std::__uniq_ptr_impl.25" }
%"class.std::__uniq_ptr_impl.25" = type { %"class.std::tuple.26" }
%"class.std::tuple.26" = type { %"struct.std::_Tuple_impl.27" }
%"struct.std::_Tuple_impl.27" = type { %"struct.std::_Head_base.30" }
%"struct.std::_Head_base.30" = type { ptr }
%"class.net::QuicTime::Delta" = type { %"class.base::TimeDelta", i64 }
%"class.base::TimeDelta" = type { i64 }
%"struct.std::array" = type { [32 x i8] }

; Function Attrs: mustprogress nounwind uwtable
define linkonce_odr void @_ZN4base9TimeDeltaC2Ev(ptr noundef nonnull align 8 dereferenceable(8) %0) unnamed_addr #1 comdat align 2 {
  %2 = alloca ptr, align 8
  store ptr %0, ptr %2, align 8, !tbaa !457
  %3 = load ptr, ptr %2, align 8
  %4 = getelementptr inbounds nuw %"class.base::TimeDelta", ptr %3, i32 0, i32 0
  store i64 0, ptr %4, align 8, !tbaa !459
  ret void
}

; Function Attrs: inlinehint mustprogress uwtable
define linkonce_odr void @_ZN3net8QuicTime5DeltaC2El(ptr noundef nonnull align 8 dereferenceable(16) %0, i64 noundef %1) unnamed_addr #3 comdat align 2 {
  %3 = alloca ptr, align 8
  %4 = alloca i64, align 8
  store ptr %0, ptr %3, align 8, !tbaa !324
  store i64 %1, ptr %4, align 8, !tbaa !63
  %5 = load ptr, ptr %3, align 8
  %6 = getelementptr inbounds nuw %"class.net::QuicTime::Delta", ptr %5, i32 0, i32 0
  call void @_ZN4base9TimeDeltaC2Ev(ptr noundef nonnull align 8 dereferenceable(8) %6)
  %7 = getelementptr inbounds nuw %"class.net::QuicTime::Delta", ptr %5, i32 0, i32 1
  %8 = load i64, ptr %4, align 8, !tbaa !63
  store i64 %8, ptr %7, align 8, !tbaa !326
  ret void
}

; Function Attrs: mustprogress nounwind uwtable
define internal noundef i64 @_ZN3net12_GLOBAL__N_15DeltaEmm(i64 noundef %0, i64 noundef %1) #1 {
  %3 = alloca i64, align 8
  %4 = alloca i64, align 8
  %5 = alloca i64, align 8
  store i64 %0, ptr %4, align 8, !tbaa !63
  store i64 %1, ptr %5, align 8, !tbaa !63
  %6 = load i64, ptr %4, align 8, !tbaa !63
  %7 = load i64, ptr %5, align 8, !tbaa !63
  %8 = icmp ult i64 %6, %7
  br i1 %8, label %9, label %13

9:                                                ; preds = %2
  %10 = load i64, ptr %5, align 8, !tbaa !63
  %11 = load i64, ptr %4, align 8, !tbaa !63
  %12 = sub i64 %10, %11
  store i64 %12, ptr %3, align 8
  br label %17

13:                                               ; preds = %2
  %14 = load i64, ptr %4, align 8, !tbaa !63
  %15 = load i64, ptr %5, align 8, !tbaa !63
  %16 = sub i64 %14, %15
  store i64 %16, ptr %3, align 8
  br label %17

17:                                               ; preds = %13, %9
  %18 = load i64, ptr %3, align 8
  ret i64 %18
}

; Function Attrs: inlinehint mustprogress uwtable
define linkonce_odr { i64, i64 } @_ZN3net8QuicTime5Delta16FromMicrosecondsEl(i64 noundef %0) #3 comdat align 2 {
  %2 = alloca %"class.net::QuicTime::Delta", align 8
  %3 = alloca i64, align 8
  store i64 %0, ptr %3, align 8, !tbaa !63
  %4 = load i64, ptr %3, align 8, !tbaa !63
  call void @_ZN3net8QuicTime5DeltaC2El(ptr noundef nonnull align 8 dereferenceable(16) %2, i64 noundef %4)
  %5 = load { i64, i64 }, ptr %2, align 8
  ret { i64, i64 } %5
}

; Function Attrs: mustprogress uwtable
define internal noundef i64 @_ZN3net12_GLOBAL__N_19ClosestToEmmm(i64 noundef %0, i64 noundef %1, i64 noundef %2) #0 {
  %4 = alloca i64, align 8
  %5 = alloca i64, align 8
  %6 = alloca i64, align 8
  store i64 %0, ptr %4, align 8, !tbaa !63
  store i64 %1, ptr %5, align 8, !tbaa !63
  store i64 %2, ptr %6, align 8, !tbaa !63
  %7 = load i64, ptr %4, align 8, !tbaa !63
  %8 = load i64, ptr %5, align 8, !tbaa !63
  %9 = call noundef i64 @_ZN3net12_GLOBAL__N_15DeltaEmm(i64 noundef %7, i64 noundef %8)
  %10 = load i64, ptr %4, align 8, !tbaa !63
  %11 = load i64, ptr %6, align 8, !tbaa !63
  %12 = call noundef i64 @_ZN3net12_GLOBAL__N_15DeltaEmm(i64 noundef %10, i64 noundef %11)
  %13 = icmp ult i64 %9, %12
  br i1 %13, label %14, label %16

14:                                               ; preds = %3
  %15 = load i64, ptr %5, align 8, !tbaa !63
  br label %18

16:                                               ; preds = %3
  %17 = load i64, ptr %6, align 8, !tbaa !63
  br label %18

18:                                               ; preds = %16, %14
  %19 = phi i64 [ %15, %14 ], [ %17, %16 ]
  ret i64 %19
}

; Function Attrs: inlinehint mustprogress nounwind uwtable
define linkonce_odr noundef i64 @_ZNK3net8QuicTime5Delta14ToMicrosecondsEv(ptr noundef nonnull align 8 dereferenceable(16) %0) #5 comdat align 2 {
  %2 = alloca ptr, align 8
  store ptr %0, ptr %2, align 8, !tbaa !324
  %3 = load ptr, ptr %2, align 8
  %4 = getelementptr inbounds nuw %"class.net::QuicTime::Delta", ptr %3, i32 0, i32 1
  %5 = load i64, ptr %4, align 8, !tbaa !326
  ret i64 %5
}

; Function Attrs: mustprogress uwtable
define { i64, i64 } @_ZN3net10QuicFramer26CalculateTimestampFromWireEj(ptr noundef nonnull align 8 dereferenceable(408) %0, i32 noundef %1) #0 align 2 {
  %3 = alloca %"class.net::QuicTime::Delta", align 8
  %4 = alloca ptr, align 8
  %5 = alloca i32, align 4
  %6 = alloca i64, align 8
  %7 = alloca i64, align 8
  %8 = alloca i64, align 8
  %9 = alloca i64, align 8
  %10 = alloca i64, align 8
  store ptr %0, ptr %4, align 8, !tbaa !3
  store i32 %1, ptr %5, align 4, !tbaa !85
  %11 = load ptr, ptr %4, align 8
  call void @llvm.lifetime.start.p0(i64 8, ptr %6) #17
  store i64 4294967296, ptr %6, align 8, !tbaa !63
  call void @llvm.lifetime.start.p0(i64 8, ptr %7) #17
  %12 = getelementptr inbounds nuw %"class.net::QuicFramer", ptr %11, i32 0, i32 24
  %13 = call noundef i64 @_ZNK3net8QuicTime5Delta14ToMicrosecondsEv(ptr noundef nonnull align 8 dereferenceable(16) %12)
  %14 = and i64 %13, -4294967296
  store i64 %14, ptr %7, align 8, !tbaa !63
  call void @llvm.lifetime.start.p0(i64 8, ptr %8) #17
  %15 = load i64, ptr %7, align 8, !tbaa !63
  %16 = sub i64 %15, 4294967296
  store i64 %16, ptr %8, align 8, !tbaa !63
  call void @llvm.lifetime.start.p0(i64 8, ptr %9) #17
  %17 = load i64, ptr %7, align 8, !tbaa !63
  %18 = add i64 %17, 4294967296
  store i64 %18, ptr %9, align 8, !tbaa !63
  call void @llvm.lifetime.start.p0(i64 8, ptr %10) #17
  %19 = getelementptr inbounds nuw %"class.net::QuicFramer", ptr %11, i32 0, i32 24
  %20 = call noundef i64 @_ZNK3net8QuicTime5Delta14ToMicrosecondsEv(ptr noundef nonnull align 8 dereferenceable(16) %19)
  %21 = load i64, ptr %7, align 8, !tbaa !63
  %22 = load i32, ptr %5, align 4, !tbaa !85
  %23 = zext i32 %22 to i64
  %24 = add i64 %21, %23
  %25 = getelementptr inbounds nuw %"class.net::QuicFramer", ptr %11, i32 0, i32 24
  %26 = call noundef i64 @_ZNK3net8QuicTime5Delta14ToMicrosecondsEv(ptr noundef nonnull align 8 dereferenceable(16) %25)
  %27 = load i64, ptr %8, align 8, !tbaa !63
  %28 = load i32, ptr %5, align 4, !tbaa !85
  %29 = zext i32 %28 to i64
  %30 = add i64 %27, %29
  %31 = load i64, ptr %9, align 8, !tbaa !63
  %32 = load i32, ptr %5, align 4, !tbaa !85
  %33 = zext i32 %32 to i64
  %34 = add i64 %31, %33
  %35 = call noundef i64 @_ZN3net12_GLOBAL__N_19ClosestToEmmm(i64 noundef %26, i64 noundef %30, i64 noundef %34)
  %36 = call noundef i64 @_ZN3net12_GLOBAL__N_19ClosestToEmmm(i64 noundef %20, i64 noundef %24, i64 noundef %35)
  store i64 %36, ptr %10, align 8, !tbaa !63
  %37 = load i64, ptr %10, align 8, !tbaa !63
  %38 = call { i64, i64 } @_ZN3net8QuicTime5Delta16FromMicrosecondsEl(i64 noundef %37)
  %39 = getelementptr inbounds nuw { i64, i64 }, ptr %3, i32 0, i32 0
  %40 = extractvalue { i64, i64 } %38, 0
  store i64 %40, ptr %39, align 8
  %41 = getelementptr inbounds nuw { i64, i64 }, ptr %3, i32 0, i32 1
  %42 = extractvalue { i64, i64 } %38, 1
  store i64 %42, ptr %41, align 8
  call void @llvm.lifetime.end.p0(i64 8, ptr %10) #17
  call void @llvm.lifetime.end.p0(i64 8, ptr %9) #17
  call void @llvm.lifetime.end.p0(i64 8, ptr %8) #17
  call void @llvm.lifetime.end.p0(i64 8, ptr %7) #17
  call void @llvm.lifetime.end.p0(i64 8, ptr %6) #17
  %43 = load { i64, i64 }, ptr %3, align 8
  ret { i64, i64 } %43
}