; Function Attrs: mustprogress nofree norecurse nosync nounwind willreturn memory(argmem: read) uwtable
define { i64, i64 } @_ZN3net10QuicFramer26CalculateTimestampFromWireEj(ptr noundef nonnull readonly align 8 captures(none) dereferenceable(408) %0, i32 noundef %1) local_unnamed_addr #12 align 2 {
  %3 = getelementptr inbounds nuw i8, ptr %0, i64 368
  %4 = load i64, ptr %3, align 8, !tbaa !199
  %5 = and i64 %4, -4294967296
  %6 = add i64 %5, -4294967296
  %7 = add i64 %5, 4294967296
  %8 = zext i32 %1 to i64
  %9 = or disjoint i64 %5, %8
  %10 = or disjoint i64 %6, %8
  %11 = or disjoint i64 %7, %8
  %12 = icmp ult i64 %4, %10
  %13 = sub nuw i64 %10, %4
  %14 = sub nuw i64 %4, %10
  %.0.i.i = select i1 %12, i64 %13, i64 %14
  %15 = icmp ult i64 %4, %11
  %16 = sub nuw i64 %11, %4
  %17 = sub nuw i64 %4, %11
  %.0.i6.i = select i1 %15, i64 %16, i64 %17
  %18 = icmp ult i64 %.0.i.i, %.0.i6.i
  %19 = select i1 %18, i64 %10, i64 %11
  %20 = icmp ult i64 %4, %9
  %21 = sub nuw i64 %9, %4
  %22 = sub nuw i64 %4, %9
  %.0.i.i9 = select i1 %20, i64 %21, i64 %22
  %23 = icmp ult i64 %4, %19
  %24 = sub nuw i64 %19, %4
  %25 = sub nuw i64 %4, %19
  %.0.i6.i10 = select i1 %23, i64 %24, i64 %25
  %26 = icmp ult i64 %.0.i.i9, %.0.i6.i10
  %27 = select i1 %26, i64 %9, i64 %19
  %.fca.1.insert.i = insertvalue { i64, i64 } { i64 0, i64 poison }, i64 %27, 1
  ret { i64, i64 } %.fca.1.insert.i
}